; Function Attrs: mustprogress uwtable
define dso_local void @_ZN10Bookkeeper30output_struct_union_statisticsERSo(ptr noundef nonnull align 8 dereferenceable(8) %0) local_unnamed_addr #6 align 2 {
  %2 = load ptr, ptr getelementptr inbounds nuw (i8, ptr @_ZN10Bookkeeper17struct_depth_cntsE, i64 8), align 8, !tbaa !11
  %3 = load ptr, ptr @_ZN10Bookkeeper17struct_depth_cntsE, align 8, !tbaa !4
  %4 = ptrtoint ptr %2 to i64
  %5 = ptrtoint ptr %3 to i64
  %6 = sub i64 %4, %5
  %7 = lshr exact i64 %6, 2
  %8 = trunc i64 %7 to i32
  %9 = add i32 %8, -1
  tail call fastcc void @_ZL15formated_outputRSoPKci(ptr noundef nonnull align 8 dereferenceable(8) %0, ptr noundef nonnull @.str.17, i32 noundef %9)
  %10 = tail call noundef nonnull align 8 dereferenceable(8) ptr @_ZSt16__ostream_insertIcSt11char_traitsIcEERSt13basic_ostreamIT_T0_ES6_PKS3_l(ptr noundef nonnull align 8 dereferenceable(8) %0, ptr noundef nonnull @.str.10, i64 noundef 10)
  %11 = load ptr, ptr %0, align 8, !tbaa !19
  %12 = getelementptr i8, ptr %11, i64 -24
  %13 = load i64, ptr %12, align 8
  %14 = getelementptr inbounds i8, ptr %0, i64 %13
  %15 = getelementptr inbounds nuw i8, ptr %14, i64 240
  %16 = load ptr, ptr %15, align 8, !tbaa !70
  %.not.i.i.i = icmp eq ptr %16, null
  br i1 %.not.i.i.i, label %17, label %_ZSt13__check_facetISt5ctypeIcEERKT_PS3_.exit.i.i

17:                                               ; preds = %1
  tail call void @_ZSt16__throw_bad_castv() #20
  unreachable

_ZSt13__check_facetISt5ctypeIcEERKT_PS3_.exit.i.i: ; preds = %1
  %18 = getelementptr inbounds nuw i8, ptr %16, i64 56
  %19 = load i8, ptr %18, align 8, !tbaa !85
  %.not.i1.i.i = icmp eq i8 %19, 0
  br i1 %.not.i1.i.i, label %23, label %20

20:                                               ; preds = %_ZSt13__check_facetISt5ctypeIcEERKT_PS3_.exit.i.i
  %21 = getelementptr inbounds nuw i8, ptr %16, i64 67
  %22 = load i8, ptr %21, align 1, !tbaa !90
  br label %_ZSt4endlIcSt11char_traitsIcEERSt13basic_ostreamIT_T0_ES6_.exit

23:                                               ; preds = %_ZSt13__check_facetISt5ctypeIcEERKT_PS3_.exit.i.i
  tail call void @_ZNKSt5ctypeIcE13_M_widen_initEv(ptr noundef nonnull align 8 dereferenceable(570) %16)
  %24 = load ptr, ptr %16, align 8, !tbaa !19
  %25 = getelementptr inbounds nuw i8, ptr %24, i64 48
  %26 = load ptr, ptr %25, align 8
  %27 = tail call noundef signext i8 %26(ptr noundef nonnull align 8 dereferenceable(570) %16, i8 noundef signext 10)
  br label %_ZSt4endlIcSt11char_traitsIcEERSt13basic_ostreamIT_T0_ES6_.exit

_ZSt4endlIcSt11char_traitsIcEERSt13basic_ostreamIT_T0_ES6_.exit: ; preds = %20, %23
  %.0.i.i.i = phi i8 [ %22, %20 ], [ %27, %23 ]
  %28 = tail call noundef nonnull align 8 dereferenceable(8) ptr @_ZNSo3putEc(ptr noundef nonnull align 8 dereferenceable(8) %0, i8 noundef signext %.0.i.i.i)
  %29 = tail call noundef nonnull align 8 dereferenceable(8) ptr @_ZNSo5flushEv(ptr noundef nonnull align 8 dereferenceable(8) %28)
  %30 = load ptr, ptr getelementptr inbounds nuw (i8, ptr @_ZN10Bookkeeper17struct_depth_cntsE, i64 8), align 8, !tbaa !11
  %31 = load ptr, ptr @_ZN10Bookkeeper17struct_depth_cntsE, align 8, !tbaa !4
  %.not = icmp eq ptr %30, %31
  br i1 %.not, label %._crit_edge, label %.lr.ph

._crit_edge:                                      ; preds = %_ZSt4endlIcSt11char_traitsIcEERSt13basic_ostreamIT_T0_ES6_.exit12, %_ZSt4endlIcSt11char_traitsIcEERSt13basic_ostreamIT_T0_ES6_.exit
  %32 = load i32, ptr @_ZN10Bookkeeper13union_var_cntE, align 4, !tbaa !12
  tail call fastcc void @_ZL15formated_outputRSoPKci(ptr noundef nonnull align 8 dereferenceable(8) %0, ptr noundef nonnull @.str.18, i32 noundef %32)
  tail call void @_ZN10Bookkeeper16output_bitfieldsERSo(ptr noundef nonnull align 8 dereferenceable(8) %0)
  ret void

.lr.ph:                                           ; preds = %_ZSt4endlIcSt11char_traitsIcEERSt13basic_ostreamIT_T0_ES6_.exit, %_ZSt4endlIcSt11char_traitsIcEERSt13basic_ostreamIT_T0_ES6_.exit12
  %.013 = phi i64 [ %59, %_ZSt4endlIcSt11char_traitsIcEERSt13basic_ostreamIT_T0_ES6_.exit12 ], [ 0, %_ZSt4endlIcSt11char_traitsIcEERSt13basic_ostreamIT_T0_ES6_.exit ]
  %33 = tail call noundef nonnull align 8 dereferenceable(8) ptr @_ZSt16__ostream_insertIcSt11char_traitsIcEERSt13basic_ostreamIT_T0_ES6_PKS3_l(ptr noundef nonnull align 8 dereferenceable(8) %0, ptr noundef nonnull @.str.11, i64 noundef 10)
  %34 = tail call noundef nonnull align 8 dereferenceable(8) ptr @_ZNSo9_M_insertImEERSoT_(ptr noundef nonnull align 8 dereferenceable(8) %0, i64 noundef %.013)
  %35 = tail call noundef nonnull align 8 dereferenceable(8) ptr @_ZSt16__ostream_insertIcSt11char_traitsIcEERSt13basic_ostreamIT_T0_ES6_PKS3_l(ptr noundef nonnull align 8 dereferenceable(8) %34, ptr noundef nonnull @.str.12, i64 noundef 14)
  %36 = load ptr, ptr @_ZN10Bookkeeper17struct_depth_cntsE, align 8, !tbaa !4
  %37 = getelementptr inbounds nuw i32, ptr %36, i64 %.013
  %38 = load i32, ptr %37, align 4, !tbaa !12
  %39 = tail call noundef nonnull align 8 dereferenceable(8) ptr @_ZNSolsEi(ptr noundef nonnull align 8 dereferenceable(8) %34, i32 noundef %38)
  %40 = load ptr, ptr %39, align 8, !tbaa !19
  %41 = getelementptr i8, ptr %40, i64 -24
  %42 = load i64, ptr %41, align 8
  %43 = getelementptr inbounds i8, ptr %39, i64 %42
  %44 = getelementptr inbounds nuw i8, ptr %43, i64 240
  %45 = load ptr, ptr %44, align 8, !tbaa !70
  %.not.i.i.i8 = icmp eq ptr %45, null
  br i1 %.not.i.i.i8, label %46, label %_ZSt13__check_facetISt5ctypeIcEERKT_PS3_.exit.i.i9

46:                                               ; preds = %.lr.ph
  tail call void @_ZSt16__throw_bad_castv() #20
  unreachable

_ZSt13__check_facetISt5ctypeIcEERKT_PS3_.exit.i.i9: ; preds = %.lr.ph
  %47 = getelementptr inbounds nuw i8, ptr %45, i64 56
  %48 = load i8, ptr %47, align 8, !tbaa !85
  %.not.i1.i.i10 = icmp eq i8 %48, 0
  br i1 %.not.i1.i.i10, label %52, label %49

49:                                               ; preds = %_ZSt13__check_facetISt5ctypeIcEERKT_PS3_.exit.i.i9
  %50 = getelementptr inbounds nuw i8, ptr %45, i64 67
  %51 = load i8, ptr %50, align 1, !tbaa !90
  br label %_ZSt4endlIcSt11char_traitsIcEERSt13basic_ostreamIT_T0_ES6_.exit12

52:                                               ; preds = %_ZSt13__check_facetISt5ctypeIcEERKT_PS3_.exit.i.i9
  tail call void @_ZNKSt5ctypeIcE13_M_widen_initEv(ptr noundef nonnull align 8 dereferenceable(570) %45)
  %53 = load ptr, ptr %45, align 8, !tbaa !19
  %54 = getelementptr inbounds nuw i8, ptr %53, i64 48
  %55 = load ptr, ptr %54, align 8
  %56 = tail call noundef signext i8 %55(ptr noundef nonnull align 8 dereferenceable(570) %45, i8 noundef signext 10)
  br label %_ZSt4endlIcSt11char_traitsIcEERSt13basic_ostreamIT_T0_ES6_.exit12

_ZSt4endlIcSt11char_traitsIcEERSt13basic_ostreamIT_T0_ES6_.exit12: ; preds = %49, %52
  %.0.i.i.i11 = phi i8 [ %51, %49 ], [ %56, %52 ]
  %57 = tail call noundef nonnull align 8 dereferenceable(8) ptr @_ZNSo3putEc(ptr noundef nonnull align 8 dereferenceable(8) %39, i8 noundef signext %.0.i.i.i11)
  %58 = tail call noundef nonnull align 8 dereferenceable(8) ptr @_ZNSo5flushEv(ptr noundef nonnull align 8 dereferenceable(8) %57)
  %59 = add nuw i64 %.013, 1
  %60 = load ptr, ptr getelementptr inbounds nuw (i8, ptr @_ZN10Bookkeeper17struct_depth_cntsE, i64 8), align 8, !tbaa !11
  %61 = load ptr, ptr @_ZN10Bookkeeper17struct_depth_cntsE, align 8, !tbaa !4
  %62 = ptrtoint ptr %60 to i64
  %63 = ptrtoint ptr %61 to i64
  %64 = sub i64 %62, %63
  %65 = ashr exact i64 %64, 2
  %66 = icmp ult i64 %59, %65
  br i1 %66, label %.lr.ph, label %._crit_edge, !llvm.loop !94
}